target datalayout = "e-m:e-p270:32:32-p271:32:32-p272:64:64-i64:64-i128:128-f80:128-n8:16:32:64-S128"
target triple = "x86_64-pc-linux-gnu"

%struct.AVRational = type { i32, i32 }
%struct.AVFormatContext = type { ptr, ptr, ptr, ptr, ptr, i32, i32, ptr, i32, ptr, i32, ptr, ptr, i64, i64, i64, i32, i32, i32, i64, i64, ptr, i32, i32, ptr, i32, i32, i32, i32, ptr, i64, i32, i32, %struct.AVIOInterruptCB, i32, i32, i32, i32, i64, i32, i32, i32, i32, i32, i32, i32, i32, i32, i32, i32, i32, i64, i32, i32, i32, i32, i32, ptr, ptr, ptr, ptr, i32, ptr, ptr, ptr, ptr, i32, ptr, ptr, i64, ptr, ptr, ptr, i64 }
%struct.AVIOInterruptCB = type { ptr, ptr }
%struct.AVStream = type { ptr, i32, i32, ptr, ptr, %struct.AVRational, i64, i64, i64, i32, i32, %struct.AVRational, ptr, %struct.AVRational, %struct.AVPacket, i32, %struct.AVRational, i32 }
%struct.AVPacket = type { ptr, i64, i64, ptr, i32, i32, i32, ptr, i32, i64, i64, ptr, ptr, %struct.AVRational }
%struct.AVCodecParameters = type { i32, i32, i32, ptr, i32, ptr, i32, i32, i64, i32, i32, i32, i32, i32, i32, %struct.AVRational, %struct.AVRational, i32, i32, i32, i32, i32, i32, i32, %struct.AVChannelLayout, i32, i32, i32, i32, i32, i32 }
%struct.AVChannelLayout = type { i32, i32, %union.anon.0, ptr }
%union.anon.0 = type { i64 }
%struct.AVFrame = type { [8 x ptr], [8 x i32], ptr, i32, i32, i32, i32, i32, %struct.AVRational, i64, i64, %struct.AVRational, i32, ptr, i32, i32, [8 x ptr], ptr, i32, ptr, i32, i32, i32, i32, i32, i32, i32, i64, ptr, i32, ptr, ptr, i64, i64, i64, i64, ptr, %struct.AVChannelLayout, i64 }

; Function Attrs: nounwind uwtable
define internal i32 @xv_write_packet(ptr noundef %0, ptr noundef %1) #0 {
  %3 = alloca i32, align 4
  %4 = alloca ptr, align 8
  %5 = alloca ptr, align 8
  %6 = alloca ptr, align 8
  %7 = alloca ptr, align 8
  %8 = alloca i32, align 4
  %9 = alloca [4 x ptr], align 16
  %10 = alloca [4 x i32], align 16
  store ptr %0, ptr %4, align 8, !tbaa !4
  store ptr %1, ptr %5, align 8, !tbaa !101
  call void @llvm.lifetime.start.p0(i64 8, ptr %6) #7
  %11 = load ptr, ptr %4, align 8, !tbaa !4
  %12 = getelementptr inbounds nuw %struct.AVFormatContext, ptr %11, i32 0, i32 7
  %13 = load ptr, ptr %12, align 8, !tbaa !28
  %14 = getelementptr inbounds ptr, ptr %13, i64 0
  %15 = load ptr, ptr %14, align 8, !tbaa !29
  %16 = getelementptr inbounds nuw %struct.AVStream, ptr %15, i32 0, i32 3
  %17 = load ptr, ptr %16, align 8, !tbaa !31
  store ptr %17, ptr %6, align 8, !tbaa !38
  %18 = load ptr, ptr %6, align 8, !tbaa !38
  %19 = getelementptr inbounds nuw %struct.AVCodecParameters, ptr %18, i32 0, i32 1
  %20 = load i32, ptr %19, align 4, !tbaa !43
  %21 = icmp eq i32 %20, 135169
  br i1 %21, label %22, label %34

22:                                               ; preds = %2
  call void @llvm.lifetime.start.p0(i64 8, ptr %7) #7
  %23 = load ptr, ptr %5, align 8, !tbaa !101
  %24 = getelementptr inbounds nuw %struct.AVPacket, ptr %23, i32 0, i32 3
  %25 = load ptr, ptr %24, align 8, !tbaa !103
  store ptr %25, ptr %7, align 8, !tbaa !104
  %26 = load ptr, ptr %4, align 8, !tbaa !4
  %27 = load ptr, ptr %7, align 8, !tbaa !104
  %28 = getelementptr inbounds nuw %struct.AVFrame, ptr %27, i32 0, i32 0
  %29 = getelementptr inbounds [8 x ptr], ptr %28, i64 0, i64 0
  %30 = load ptr, ptr %7, align 8, !tbaa !104
  %31 = getelementptr inbounds nuw %struct.AVFrame, ptr %30, i32 0, i32 1
  %32 = getelementptr inbounds [8 x i32], ptr %31, i64 0, i64 0
  %33 = call i32 @write_picture(ptr noundef %26, ptr noundef %29, ptr noundef %32)
  store i32 %33, ptr %3, align 4
  store i32 1, ptr %8, align 4
  call void @llvm.lifetime.end.p0(i64 8, ptr %7) #7
  br label %54

34:                                               ; preds = %2
  call void @llvm.lifetime.start.p0(i64 32, ptr %9) #7
  call void @llvm.lifetime.start.p0(i64 16, ptr %10) #7
  %35 = getelementptr inbounds [4 x ptr], ptr %9, i64 0, i64 0
  %36 = getelementptr inbounds [4 x i32], ptr %10, i64 0, i64 0
  %37 = load ptr, ptr %5, align 8, !tbaa !101
  %38 = getelementptr inbounds nuw %struct.AVPacket, ptr %37, i32 0, i32 3
  %39 = load ptr, ptr %38, align 8, !tbaa !103
  %40 = load ptr, ptr %6, align 8, !tbaa !38
  %41 = getelementptr inbounds nuw %struct.AVCodecParameters, ptr %40, i32 0, i32 7
  %42 = load i32, ptr %41, align 4, !tbaa !44
  %43 = load ptr, ptr %6, align 8, !tbaa !38
  %44 = getelementptr inbounds nuw %struct.AVCodecParameters, ptr %43, i32 0, i32 13
  %45 = load i32, ptr %44, align 8, !tbaa !52
  %46 = load ptr, ptr %6, align 8, !tbaa !38
  %47 = getelementptr inbounds nuw %struct.AVCodecParameters, ptr %46, i32 0, i32 14
  %48 = load i32, ptr %47, align 4, !tbaa !54
  %49 = call i32 @av_image_fill_arrays(ptr noundef %35, ptr noundef %36, ptr noundef %39, i32 noundef %42, i32 noundef %45, i32 noundef %48, i32 noundef 1)
  %50 = load ptr, ptr %4, align 8, !tbaa !4
  %51 = getelementptr inbounds [4 x ptr], ptr %9, i64 0, i64 0
  %52 = getelementptr inbounds [4 x i32], ptr %10, i64 0, i64 0
  %53 = call i32 @write_picture(ptr noundef %50, ptr noundef %51, ptr noundef %52)
  store i32 %53, ptr %3, align 4
  store i32 1, ptr %8, align 4
  call void @llvm.lifetime.end.p0(i64 16, ptr %10) #7
  call void @llvm.lifetime.end.p0(i64 32, ptr %9) #7
  br label %54

54:                                               ; preds = %34, %22
  call void @llvm.lifetime.end.p0(i64 8, ptr %6) #7
  %55 = load i32, ptr %3, align 4
  ret i32 %55
}