; Function Attrs: nounwind uwtable
define internal range(i32 -542398533, 1) i32 @xv_write_packet(ptr noundef %0, ptr noundef readonly captures(none) %1) #0 {
  %3 = alloca [4 x ptr], align 16
  %4 = alloca [4 x i32], align 16
  %5 = getelementptr inbounds nuw i8, ptr %0, i64 48
  %6 = load ptr, ptr %5, align 8, !tbaa !25
  %7 = load ptr, ptr %6, align 8, !tbaa !26
  %8 = getelementptr inbounds nuw i8, ptr %7, i64 16
  %9 = load ptr, ptr %8, align 8, !tbaa !28
  %10 = getelementptr inbounds nuw i8, ptr %9, i64 4
  %11 = load i32, ptr %10, align 4, !tbaa !39
  %12 = icmp eq i32 %11, 135169
  br i1 %12, label %13, label %18

13:                                               ; preds = %2
  %14 = getelementptr inbounds nuw i8, ptr %1, i64 24
  %15 = load ptr, ptr %14, align 8, !tbaa !99
  %16 = getelementptr inbounds nuw i8, ptr %15, i64 64
  %17 = tail call fastcc i32 @write_picture(ptr noundef nonnull %0, ptr noundef %15, ptr noundef nonnull %16)
  br label %29

18:                                               ; preds = %2
  call void @llvm.lifetime.start.p0(i64 32, ptr nonnull %3) #5
  call void @llvm.lifetime.start.p0(i64 16, ptr nonnull %4) #5
  %19 = getelementptr inbounds nuw i8, ptr %1, i64 24
  %20 = load ptr, ptr %19, align 8, !tbaa !99
  %21 = getelementptr inbounds nuw i8, ptr %9, i64 44
  %22 = load i32, ptr %21, align 4, !tbaa !40
  %23 = getelementptr inbounds nuw i8, ptr %9, i64 72
  %24 = load i32, ptr %23, align 8, !tbaa !53
  %25 = getelementptr inbounds nuw i8, ptr %9, i64 76
  %26 = load i32, ptr %25, align 4, !tbaa !55
  %27 = call i32 @av_image_fill_arrays(ptr noundef nonnull %3, ptr noundef nonnull %4, ptr noundef %20, i32 noundef %22, i32 noundef %24, i32 noundef %26, i32 noundef 1) #5
  %28 = call fastcc i32 @write_picture(ptr noundef nonnull %0, ptr noundef nonnull %3, ptr noundef nonnull %4)
  call void @llvm.lifetime.end.p0(i64 16, ptr nonnull %4) #5
  call void @llvm.lifetime.end.p0(i64 32, ptr nonnull %3) #5
  br label %29

29:                                               ; preds = %18, %13
  %.0 = phi i32 [ %17, %13 ], [ %28, %18 ]
  ret i32 %.0
}